; ModuleID = '20/396.c'
source_filename = "20/396.c"
target datalayout = "e-m:e-p270:32:32-p271:32:32-p272:64:64-i64:64-f80:128-n8:16:32:64-S128"
target triple = "x86_64-pc-linux-gnu"

@.str = private unnamed_addr constant [6 x i8] c"%s %s\00", align 1
@.str.1 = private unnamed_addr constant [3 x i8] c"%c\00", align 1
@.str.2 = private unnamed_addr constant [2 x i8] c"\0A\00", align 1

; Function Attrs: noinline nounwind uwtable
define dso_local void @main() #0 {
  %1 = alloca [14 x i8], align 1
  %2 = alloca [4 x i8], align 1
  %3 = alloca i32, align 4
  %4 = alloca i32, align 4
  %5 = alloca i32, align 4
  %6 = alloca i32, align 4
  %7 = alloca i8*, align 8
  br label %8

8:                                                ; preds = %108, %0
  %9 = getelementptr inbounds [14 x i8], [14 x i8]* %1, i64 0, i64 0
  %10 = getelementptr inbounds [4 x i8], [4 x i8]* %2, i64 0, i64 0
  %11 = call i32 (i8*, ...) @__isoc99_scanf(i8* getelementptr inbounds ([6 x i8], [6 x i8]* @.str, i64 0, i64 0), i8* %9, i8* %10)
  %12 = icmp ne i32 %11, -1
  br i1 %12, label %13, label %110

13:                                               ; preds = %8
  store i32 0, i32* %5, align 4
  %14 = getelementptr inbounds [14 x i8], [14 x i8]* %1, i64 0, i64 0
  %15 = call i64 @strlen(i8* %14) #3
  %16 = trunc i64 %15 to i32
  store i32 %16, i32* %4, align 4
  %17 = getelementptr inbounds [14 x i8], [14 x i8]* %1, i64 0, i64 0
  store i8* %17, i8** %7, align 8
  store i32 0, i32* %3, align 4
  br label %18

18:                                               ; preds = %40, %13
  %19 = load i32, i32* %3, align 4
  %20 = load i32, i32* %4, align 4
  %21 = icmp slt i32 %19, %20
  br i1 %21, label %22, label %43

22:                                               ; preds = %18
  %23 = load i8*, i8** %7, align 8
  %24 = load i32, i32* %3, align 4
  %25 = sext i32 %24 to i64
  %26 = getelementptr inbounds i8, i8* %23, i64 %25
  %27 = load i8, i8* %26, align 1
  %28 = sext i8 %27 to i32
  %29 = load i32, i32* %5, align 4
  %30 = icmp sgt i32 %28, %29
  br i1 %30, label %31, label %39

31:                                               ; preds = %22
  %32 = load i8*, i8** %7, align 8
  %33 = load i32, i32* %3, align 4
  %34 = sext i32 %33 to i64
  %35 = getelementptr inbounds i8, i8* %32, i64 %34
  %36 = load i8, i8* %35, align 1
  %37 = sext i8 %36 to i32
  store i32 %37, i32* %5, align 4
  %38 = load i32, i32* %3, align 4
  store i32 %38, i32* %6, align 4
  br label %39

39:                                               ; preds = %31, %22
  br label %40

40:                                               ; preds = %39
  %41 = load i32, i32* %3, align 4
  %42 = add nsw i32 %41, 1
  store i32 %42, i32* %3, align 4
  br label %18

43:                                               ; preds = %18
  %44 = load i32, i32* %4, align 4
  %45 = add nsw i32 %44, 2
  store i32 %45, i32* %3, align 4
  br label %46

46:                                               ; preds = %61, %43
  %47 = load i32, i32* %3, align 4
  %48 = load i32, i32* %6, align 4
  %49 = add nsw i32 %48, 3
  %50 = icmp sgt i32 %47, %49
  br i1 %50, label %51, label %64

51:                                               ; preds = %46
  %52 = load i32, i32* %3, align 4
  %53 = sub nsw i32 %52, 3
  %54 = sext i32 %53 to i64
  %55 = getelementptr inbounds [14 x i8], [14 x i8]* %1, i64 0, i64 %54
  %56 = load i8, i8* %55, align 1
  %57 = load i8*, i8** %7, align 8
  %58 = load i32, i32* %3, align 4
  %59 = sext i32 %58 to i64
  %60 = getelementptr inbounds i8, i8* %57, i64 %59
  store i8 %56, i8* %60, align 1
  br label %61

61:                                               ; preds = %51
  %62 = load i32, i32* %3, align 4
  %63 = add nsw i32 %62, -1
  store i32 %63, i32* %3, align 4
  br label %46

64:                                               ; preds = %46
  %65 = load i8*, i8** %7, align 8
  %66 = load i32, i32* %4, align 4
  %67 = sext i32 %66 to i64
  %68 = getelementptr inbounds i8, i8* %65, i64 %67
  %69 = getelementptr inbounds i8, i8* %68, i64 3
  store i8 0, i8* %69, align 1
  %70 = load i32, i32* %6, align 4
  %71 = add nsw i32 %70, 3
  store i32 %71, i32* %3, align 4
  br label %72

72:                                               ; preds = %88, %64
  %73 = load i32, i32* %3, align 4
  %74 = load i32, i32* %6, align 4
  %75 = icmp sgt i32 %73, %74
  br i1 %75, label %76, label %91

76:                                               ; preds = %72
  %77 = load i32, i32* %3, align 4
  %78 = load i32, i32* %6, align 4
  %79 = sub nsw i32 %77, %78
  %80 = sub nsw i32 %79, 1
  %81 = sext i32 %80 to i64
  %82 = getelementptr inbounds [4 x i8], [4 x i8]* %2, i64 0, i64 %81
  %83 = load i8, i8* %82, align 1
  %84 = load i8*, i8** %7, align 8
  %85 = load i32, i32* %3, align 4
  %86 = sext i32 %85 to i64
  %87 = getelementptr inbounds i8, i8* %84, i64 %86
  store i8 %83, i8* %87, align 1
  br label %88

88:                                               ; preds = %76
  %89 = load i32, i32* %3, align 4
  %90 = add nsw i32 %89, -1
  store i32 %90, i32* %3, align 4
  br label %72

91:                                               ; preds = %72
  store i32 0, i32* %3, align 4
  br label %92

92:                                               ; preds = %105, %91
  %93 = load i32, i32* %3, align 4
  %94 = load i32, i32* %4, align 4
  %95 = add nsw i32 %94, 3
  %96 = icmp slt i32 %93, %95
  br i1 %96, label %97, label %108

97:                                               ; preds = %92
  %98 = load i8*, i8** %7, align 8
  %99 = load i32, i32* %3, align 4
  %100 = sext i32 %99 to i64
  %101 = getelementptr inbounds i8, i8* %98, i64 %100
  %102 = load i8, i8* %101, align 1
  %103 = sext i8 %102 to i32
  %104 = call i32 (i8*, ...) @printf(i8* getelementptr inbounds ([3 x i8], [3 x i8]* @.str.1, i64 0, i64 0), i32 %103)
  br label %105

105:                                              ; preds = %97
  %106 = load i32, i32* %3, align 4
  %107 = add nsw i32 %106, 1
  store i32 %107, i32* %3, align 4
  br label %92

108:                                              ; preds = %92
  %109 = call i32 (i8*, ...) @printf(i8* getelementptr inbounds ([2 x i8], [2 x i8]* @.str.2, i64 0, i64 0))
  br label %8

110:                                              ; preds = %8
  ret void
}

declare dso_local i32 @__isoc99_scanf(i8*, ...) #1

; Function Attrs: nounwind readonly
declare dso_local i64 @strlen(i8*) #2

declare dso_local i32 @printf(i8*, ...) #1


!llvm.module.flags = !{!0}
!llvm.ident = !{!1}

!0 = !{i32 1, !"wchar_size", i32 4}
!1 = !{!"clang version 10.0.0-4ubuntu1 "}
